target datalayout = "e-m:e-p270:32:32-p271:32:32-p272:64:64-i64:64-i128:128-f80:128-n8:16:32:64-S128"
target triple = "x86_64-pc-linux-gnu"

%"class.clang::Stmt" = type { %union.anon }
%union.anon = type { %"class.clang::Stmt::PseudoObjectExprBitfields" }
%"class.clang::Stmt::PseudoObjectExprBitfields" = type { i64 }
%"class.clang::Expr" = type { %"class.clang::ValueStmt", %"class.clang::QualType" }
%"class.clang::ValueStmt" = type { %"class.clang::Stmt" }
%"class.clang::QualType" = type { %"class.llvm::PointerIntPair" }
%"class.llvm::PointerIntPair" = type { %"struct.llvm::detail::PunnedPointer" }
%"struct.llvm::detail::PunnedPointer" = type { [8 x i8] }
%"class.clang::APValue" = type { i32, [4 x i8], %"struct.llvm::AlignedCharArrayUnion" }
%"struct.llvm::AlignedCharArrayUnion" = type { [64 x i8] }
%"class.clang::Stmt::ConstantExprBitfields" = type <{ i32, i8, [3 x i8] }>
%"class.clang::FullExpr" = type { %"class.clang::Expr", ptr }
%"class.llvm::APInt" = type <{ %union.anon.410, i32, [4 x i8] }>
%union.anon.410 = type { i64 }
%"class.llvm::APSInt" = type { %"class.llvm::APInt.base", i8, [3 x i8] }
%"class.llvm::APInt.base" = type <{ %union.anon.410, i32 }>
%class.anon.1045 = type { i8 }
%"class.clang::ConstantExpr" = type { %"class.clang::FullExpr" }

; Function Attrs: mustprogress nounwind uwtable
define linkonce_odr hidden noundef i64 @_ZNK5clang12ConstantExpr18numTrailingObjectsEN4llvm25trailing_objects_internal19TrailingObjectsBase13OverloadTokenINS_7APValueEEE(ptr noundef nonnull align 8 dereferenceable(24) %0) #0 comdat align 2 {
  %2 = alloca ptr, align 8
  store ptr %0, ptr %2, align 8
  %3 = load ptr, ptr %2, align 8
  %4 = call noundef i32 @_ZNK5clang12ConstantExpr20getResultStorageKindEv(ptr noundef nonnull align 8 dereferenceable(24) %3)
  %5 = icmp eq i32 %4, 2
  %6 = zext i1 %5 to i64
  ret i64 %6
}

; Function Attrs: mustprogress nounwind uwtable
define linkonce_odr hidden noundef i64 @_ZN4llvm15TrailingObjectsIN5clang12ConstantExprEJNS1_7APValueEmEE22callNumTrailingObjectsEPKS2_NS_25trailing_objects_internal19TrailingObjectsBase13OverloadTokenIS2_EE(ptr noundef %0) #0 comdat align 2 {
  %2 = alloca ptr, align 8
  store ptr %0, ptr %2, align 8
  ret i64 1
}

; Function Attrs: mustprogress nounwind uwtable
define linkonce_odr hidden noundef ptr @_ZN4llvm15TrailingObjectsIN5clang12ConstantExprEJNS1_7APValueEmEE22getTrailingObjectsImplEPS2_NS_25trailing_objects_internal19TrailingObjectsBase13OverloadTokenIS2_EE(ptr noundef %0) #0 comdat align 2 {
  %2 = alloca ptr, align 8
  store ptr %0, ptr %2, align 8
  %3 = load ptr, ptr %2, align 8
  ret ptr %3
}

; Function Attrs: mustprogress nounwind uwtable
define linkonce_odr hidden noundef i64 @_ZN4llvm15TrailingObjectsIN5clang12ConstantExprEJNS1_7APValueEmEE22callNumTrailingObjectsIS3_EEmPKS2_NS_25trailing_objects_internal19TrailingObjectsBase13OverloadTokenIT_EE(ptr noundef %0) #0 comdat align 2 {
  %2 = alloca ptr, align 8
  store ptr %0, ptr %2, align 8
  %3 = load ptr, ptr %2, align 8
  %4 = call noundef i64 @_ZNK5clang12ConstantExpr18numTrailingObjectsEN4llvm25trailing_objects_internal19TrailingObjectsBase13OverloadTokenINS_7APValueEEE(ptr noundef nonnull align 8 dereferenceable(24) %3)
  ret i64 %4
}

; Function Attrs: mustprogress nounwind uwtable
define linkonce_odr hidden noundef ptr @_ZN4llvm25trailing_objects_internal19TrailingObjectsImplILi8EN5clang12ConstantExprENS_15TrailingObjectsIS3_JNS2_7APValueEmEEES3_JS5_mEE22getTrailingObjectsImplEPS3_NS0_19TrailingObjectsBase13OverloadTokenIS5_EE(ptr noundef %0) #0 comdat align 2 {
  %2 = alloca ptr, align 8
  %3 = alloca ptr, align 8
  store ptr %0, ptr %2, align 8
  %4 = load ptr, ptr %2, align 8
  %5 = call noundef ptr @_ZN4llvm15TrailingObjectsIN5clang12ConstantExprEJNS1_7APValueEmEE22getTrailingObjectsImplEPS2_NS_25trailing_objects_internal19TrailingObjectsBase13OverloadTokenIS2_EE(ptr noundef %4)
  %6 = load ptr, ptr %2, align 8
  %7 = call noundef i64 @_ZN4llvm15TrailingObjectsIN5clang12ConstantExprEJNS1_7APValueEmEE22callNumTrailingObjectsEPKS2_NS_25trailing_objects_internal19TrailingObjectsBase13OverloadTokenIS2_EE(ptr noundef %6)
  %8 = getelementptr inbounds %"class.clang::ConstantExpr", ptr %5, i64 %7
  store ptr %8, ptr %3, align 8
  %9 = load ptr, ptr %3, align 8
  ret ptr %9
}

; Function Attrs: mustprogress nounwind uwtable
define linkonce_odr hidden noundef ptr @_ZN4llvm25trailing_objects_internal19TrailingObjectsImplILi8EN5clang12ConstantExprENS_15TrailingObjectsIS3_JNS2_7APValueEmEEES5_JmEE22getTrailingObjectsImplEPS3_NS0_19TrailingObjectsBase13OverloadTokenImEE(ptr noundef %0) #0 comdat align 2 {
  %2 = alloca ptr, align 8
  %3 = alloca ptr, align 8
  store ptr %0, ptr %2, align 8
  %4 = load ptr, ptr %2, align 8
  %5 = call noundef ptr @_ZN4llvm25trailing_objects_internal19TrailingObjectsImplILi8EN5clang12ConstantExprENS_15TrailingObjectsIS3_JNS2_7APValueEmEEES3_JS5_mEE22getTrailingObjectsImplEPS3_NS0_19TrailingObjectsBase13OverloadTokenIS5_EE(ptr noundef %4)
  %6 = load ptr, ptr %2, align 8
  %7 = call noundef i64 @_ZN4llvm15TrailingObjectsIN5clang12ConstantExprEJNS1_7APValueEmEE22callNumTrailingObjectsIS3_EEmPKS2_NS_25trailing_objects_internal19TrailingObjectsBase13OverloadTokenIT_EE(ptr noundef %6)
  %8 = getelementptr inbounds %"class.clang::APValue", ptr %5, i64 %7
  store ptr %8, ptr %3, align 8
  %9 = load ptr, ptr %3, align 8
  ret ptr %9
}

; Function Attrs: mustprogress nounwind uwtable
define linkonce_odr hidden void @_ZN4llvm15TrailingObjectsIN5clang12ConstantExprEJNS1_7APValueEmEE31verifyTrailingObjectsAssertionsEv() #0 comdat align 2 {
  ret void
}

; Function Attrs: mustprogress nounwind uwtable
define linkonce_odr hidden noundef ptr @_ZZNK5clang10ASTContext14addDestructionINS_7APValueEEEvPT_ENKUlPvE_cvPFvS5_EEv(ptr noundef nonnull align 1 dereferenceable(1) %0) #0 comdat align 2 {
  %2 = alloca ptr, align 8
  store ptr %0, ptr %2, align 8
  ret ptr @_ZZNK5clang10ASTContext14addDestructionINS_7APValueEEEvPT_ENUlPvE_8__invokeES5_
}

; Function Attrs: mustprogress nounwind uwtable
define linkonce_odr hidden noundef ptr @_ZN4llvm15TrailingObjectsIN5clang12ConstantExprEJNS1_7APValueEmEE18getTrailingObjectsIS3_EEPT_v(ptr noundef nonnull align 8 dereferenceable(8) %0) #0 comdat align 2 {
  %2 = alloca ptr, align 8
  store ptr %0, ptr %2, align 8
  %3 = load ptr, ptr %2, align 8
  call void @_ZN4llvm15TrailingObjectsIN5clang12ConstantExprEJNS1_7APValueEmEE31verifyTrailingObjectsAssertionsEv()
  %4 = call noundef ptr @_ZN4llvm25trailing_objects_internal19TrailingObjectsImplILi8EN5clang12ConstantExprENS_15TrailingObjectsIS3_JNS2_7APValueEmEEES3_JS5_mEE22getTrailingObjectsImplEPS3_NS0_19TrailingObjectsBase13OverloadTokenIS5_EE(ptr noundef %3)
  ret ptr %4
}

; Function Attrs: mustprogress nounwind uwtable
define linkonce_odr hidden noundef ptr @_ZN4llvm15TrailingObjectsIN5clang12ConstantExprEJNS1_7APValueEmEE18getTrailingObjectsImEEPT_v(ptr noundef nonnull align 8 dereferenceable(8) %0) #0 comdat align 2 {
  %2 = alloca ptr, align 8
  store ptr %0, ptr %2, align 8
  %3 = load ptr, ptr %2, align 8
  call void @_ZN4llvm15TrailingObjectsIN5clang12ConstantExprEJNS1_7APValueEmEE31verifyTrailingObjectsAssertionsEv()
  %4 = call noundef ptr @_ZN4llvm25trailing_objects_internal19TrailingObjectsImplILi8EN5clang12ConstantExprENS_15TrailingObjectsIS3_JNS2_7APValueEmEEES5_JmEE22getTrailingObjectsImplEPS3_NS0_19TrailingObjectsBase13OverloadTokenImEE(ptr noundef %3)
  ret ptr %4
}

; Function Attrs: mustprogress nounwind uwtable
define linkonce_odr hidden noundef zeroext i1 @_ZNK4llvm5APInt12isSingleWordEv(ptr noundef nonnull align 8 dereferenceable(12) %0) #0 comdat align 2 {
  %2 = alloca ptr, align 8
  store ptr %0, ptr %2, align 8
  %3 = load ptr, ptr %2, align 8
  %4 = getelementptr inbounds nuw %"class.llvm::APInt", ptr %3, i32 0, i32 1
  %5 = load i32, ptr %4, align 8
  %6 = icmp ule i32 %5, 64
  ret i1 %6
}

; Function Attrs: mustprogress nounwind uwtable
define linkonce_odr hidden void @_ZNK5clang10ASTContext14addDestructionINS_7APValueEEEvPT_(ptr noundef nonnull align 8 dereferenceable(23096) %0, ptr noundef %1) #0 comdat align 2 {
  %3 = alloca ptr, align 8
  %4 = alloca ptr, align 8
  %5 = alloca %class.anon.1045, align 1
  store ptr %0, ptr %3, align 8
  store ptr %1, ptr %4, align 8
  %6 = load ptr, ptr %3, align 8
  %7 = call noundef ptr @_ZZNK5clang10ASTContext14addDestructionINS_7APValueEEEvPT_ENKUlPvE_cvPFvS5_EEv(ptr noundef nonnull align 1 dereferenceable(1) %5) #17
  %8 = load ptr, ptr %4, align 8
  call void @_ZNK5clang10ASTContext15AddDeallocationEPFvPvES1_(ptr noundef nonnull align 8 dereferenceable(23096) %6, ptr noundef %7, ptr noundef %8)
  ret void
}

; Function Attrs: mustprogress nounwind uwtable
define linkonce_odr hidden noundef nonnull align 8 dereferenceable(72) ptr @_ZN5clang12ConstantExpr13APValueResultEv(ptr noundef nonnull align 8 dereferenceable(24) %0) #0 comdat align 2 {
  %2 = alloca ptr, align 8
  store ptr %0, ptr %2, align 8
  %3 = load ptr, ptr %2, align 8
  %4 = call noundef ptr @_ZN4llvm15TrailingObjectsIN5clang12ConstantExprEJNS1_7APValueEmEE18getTrailingObjectsIS3_EEPT_v(ptr noundef nonnull align 8 dereferenceable(8) %3)
  ret ptr %4
}

; Function Attrs: mustprogress nounwind uwtable
define linkonce_odr hidden noundef zeroext i1 @_ZNK4llvm6APSInt10isUnsignedEv(ptr noundef nonnull align 8 dereferenceable(13) %0) #0 comdat align 2 {
  %2 = alloca ptr, align 8
  store ptr %0, ptr %2, align 8
  %3 = load ptr, ptr %2, align 8
  %4 = getelementptr inbounds nuw %"class.llvm::APSInt", ptr %3, i32 0, i32 1
  %5 = load i8, ptr %4, align 4
  %6 = trunc i8 %5 to i1
  ret i1 %6
}

; Function Attrs: mustprogress nounwind uwtable
define linkonce_odr hidden noundef i32 @_ZNK4llvm5APInt11getBitWidthEv(ptr noundef nonnull align 8 dereferenceable(12) %0) #0 comdat align 2 {
  %2 = alloca ptr, align 8
  store ptr %0, ptr %2, align 8
  %3 = load ptr, ptr %2, align 8
  %4 = getelementptr inbounds nuw %"class.llvm::APInt", ptr %3, i32 0, i32 1
  %5 = load i32, ptr %4, align 8
  ret i32 %5
}

; Function Attrs: mustprogress nounwind uwtable
define linkonce_odr hidden noundef nonnull align 8 dereferenceable(8) ptr @_ZN5clang12ConstantExpr11Int64ResultEv(ptr noundef nonnull align 8 dereferenceable(24) %0) #0 comdat align 2 {
  %2 = alloca ptr, align 8
  store ptr %0, ptr %2, align 8
  %3 = load ptr, ptr %2, align 8
  %4 = call noundef ptr @_ZN4llvm15TrailingObjectsIN5clang12ConstantExprEJNS1_7APValueEmEE18getTrailingObjectsImEEPT_v(ptr noundef nonnull align 8 dereferenceable(8) %3)
  ret ptr %4
}

; Function Attrs: mustprogress nounwind uwtable
define linkonce_odr hidden noundef ptr @_ZNK4llvm5APInt10getRawDataEv(ptr noundef nonnull align 8 dereferenceable(12) %0) #0 comdat align 2 {
  %2 = alloca ptr, align 8
  %3 = alloca ptr, align 8
  store ptr %0, ptr %3, align 8
  %4 = load ptr, ptr %3, align 8
  %5 = call noundef zeroext i1 @_ZNK4llvm5APInt12isSingleWordEv(ptr noundef nonnull align 8 dereferenceable(12) %4)
  br i1 %5, label %6, label %8

6:                                                ; preds = %1
  %7 = getelementptr inbounds nuw %"class.llvm::APInt", ptr %4, i32 0, i32 0
  store ptr %7, ptr %2, align 8
  br label %12

8:                                                ; preds = %1
  %9 = getelementptr inbounds nuw %"class.llvm::APInt", ptr %4, i32 0, i32 0
  %10 = load ptr, ptr %9, align 8
  %11 = getelementptr inbounds i64, ptr %10, i64 0
  store ptr %11, ptr %2, align 8
  br label %12

12:                                               ; preds = %8, %6
  %13 = load ptr, ptr %2, align 8
  ret ptr %13
}

; Function Attrs: mustprogress nounwind uwtable
define linkonce_odr hidden noundef nonnull align 8 dereferenceable(13) ptr @_ZN5clang7APValue6getIntEv(ptr noundef nonnull align 8 dereferenceable(72) %0) #0 comdat align 2 {
  %2 = alloca ptr, align 8
  store ptr %0, ptr %2, align 8
  %3 = load ptr, ptr %2, align 8
  %4 = getelementptr inbounds nuw %"class.clang::APValue", ptr %3, i32 0, i32 2
  ret ptr %4
}

; Function Attrs: mustprogress nounwind uwtable
define linkonce_odr hidden noundef i32 @_ZNK5clang12ConstantExpr20getResultStorageKindEv(ptr noundef nonnull align 8 dereferenceable(24) %0) #0 comdat align 2 {
  %2 = alloca ptr, align 8
  store ptr %0, ptr %2, align 8
  %3 = load ptr, ptr %2, align 8
  %4 = getelementptr inbounds nuw %"class.clang::Stmt", ptr %3, i32 0, i32 0
  %5 = load i32, ptr %4, align 8
  %6 = lshr i32 %5, 18
  %7 = and i32 %6, 3
  ret i32 %7
}

; Function Attrs: mustprogress nounwind uwtable
define linkonce_odr hidden noundef i32 @_ZNK5clang7APValue7getKindEv(ptr noundef nonnull align 8 dereferenceable(72) %0) #0 comdat align 2 {
  %2 = alloca ptr, align 8
  store ptr %0, ptr %2, align 8
  %3 = load ptr, ptr %2, align 8
  %4 = getelementptr inbounds nuw %"class.clang::APValue", ptr %3, i32 0, i32 0
  %5 = load i32, ptr %4, align 8
  ret i32 %5
}

; Function Attrs: mustprogress nounwind uwtable
define dso_local void @_ZN5clang12ConstantExpr14MoveIntoResultERNS_7APValueERKNS_10ASTContextE(ptr noundef nonnull align 8 dereferenceable(24) %0, ptr noundef nonnull align 8 dereferenceable(72) %1, ptr noundef nonnull align 8 dereferenceable(23096) %2) #0 align 2 {
  %4 = alloca ptr, align 8
  %5 = alloca ptr, align 8
  %6 = alloca ptr, align 8
  store ptr %0, ptr %4, align 8
  store ptr %1, ptr %5, align 8
  store ptr %2, ptr %6, align 8
  %7 = load ptr, ptr %4, align 8
  %8 = load ptr, ptr %5, align 8
  %9 = call noundef i32 @_ZNK5clang7APValue7getKindEv(ptr noundef nonnull align 8 dereferenceable(72) %8)
  %10 = getelementptr inbounds nuw %"class.clang::Stmt", ptr %7, i32 0, i32 0
  %11 = load i32, ptr %10, align 8
  %12 = and i32 %9, 15
  %13 = shl i32 %12, 20
  %14 = and i32 %11, -15728641
  %15 = or i32 %14, %13
  store i32 %15, ptr %10, align 8
  %16 = call noundef i32 @_ZNK5clang12ConstantExpr20getResultStorageKindEv(ptr noundef nonnull align 8 dereferenceable(24) %7)
  switch i32 %16, label %65 [
    i32 0, label %17
    i32 1, label %18
    i32 2, label %43
  ]

17:                                               ; preds = %3
  br label %66

18:                                               ; preds = %3
  %19 = load ptr, ptr %5, align 8
  %20 = call noundef nonnull align 8 dereferenceable(13) ptr @_ZN5clang7APValue6getIntEv(ptr noundef nonnull align 8 dereferenceable(72) %19)
  %21 = call noundef ptr @_ZNK4llvm5APInt10getRawDataEv(ptr noundef nonnull align 8 dereferenceable(12) %20)
  %22 = load i64, ptr %21, align 8
  %23 = call noundef nonnull align 8 dereferenceable(8) ptr @_ZN5clang12ConstantExpr11Int64ResultEv(ptr noundef nonnull align 8 dereferenceable(24) %7)
  store i64 %22, ptr %23, align 8
  %24 = load ptr, ptr %5, align 8
  %25 = call noundef nonnull align 8 dereferenceable(13) ptr @_ZN5clang7APValue6getIntEv(ptr noundef nonnull align 8 dereferenceable(72) %24)
  %26 = call noundef i32 @_ZNK4llvm5APInt11getBitWidthEv(ptr noundef nonnull align 8 dereferenceable(12) %25)
  %27 = getelementptr inbounds nuw %"class.clang::Stmt", ptr %7, i32 0, i32 0
  %28 = load i32, ptr %27, align 8
  %29 = and i32 %26, 127
  %30 = shl i32 %29, 25
  %31 = and i32 %28, 33554431
  %32 = or i32 %31, %30
  store i32 %32, ptr %27, align 8
  %33 = load ptr, ptr %5, align 8
  %34 = call noundef nonnull align 8 dereferenceable(13) ptr @_ZN5clang7APValue6getIntEv(ptr noundef nonnull align 8 dereferenceable(72) %33)
  %35 = call noundef zeroext i1 @_ZNK4llvm6APSInt10isUnsignedEv(ptr noundef nonnull align 8 dereferenceable(13) %34)
  %36 = zext i1 %35 to i32
  %37 = getelementptr inbounds nuw %"class.clang::Stmt", ptr %7, i32 0, i32 0
  %38 = load i32, ptr %37, align 8
  %39 = and i32 %36, 1
  %40 = shl i32 %39, 24
  %41 = and i32 %38, -16777217
  %42 = or i32 %41, %40
  store i32 %42, ptr %37, align 8
  br label %66

43:                                               ; preds = %3
  %44 = getelementptr inbounds nuw %"class.clang::Stmt", ptr %7, i32 0, i32 0
  %45 = getelementptr inbounds nuw %"class.clang::Stmt::ConstantExprBitfields", ptr %44, i32 0, i32 1
  %46 = load i8, ptr %45, align 4
  %47 = and i8 %46, 1
  %48 = zext i8 %47 to i32
  %49 = icmp ne i32 %48, 0
  br i1 %49, label %61, label %50

50:                                               ; preds = %43
  %51 = load ptr, ptr %5, align 8
  %52 = call noundef zeroext i1 @_ZNK5clang7APValue12needsCleanupEv(ptr noundef nonnull align 8 dereferenceable(72) %51)
  br i1 %52, label %53, label %61

53:                                               ; preds = %50
  %54 = getelementptr inbounds nuw %"class.clang::Stmt", ptr %7, i32 0, i32 0
  %55 = getelementptr inbounds nuw %"class.clang::Stmt::ConstantExprBitfields", ptr %54, i32 0, i32 1
  %56 = load i8, ptr %55, align 4
  %57 = and i8 %56, -2
  %58 = or i8 %57, 1
  store i8 %58, ptr %55, align 4
  %59 = load ptr, ptr %6, align 8
  %60 = call noundef nonnull align 8 dereferenceable(72) ptr @_ZN5clang12ConstantExpr13APValueResultEv(ptr noundef nonnull align 8 dereferenceable(24) %7)
  call void @_ZNK5clang10ASTContext14addDestructionINS_7APValueEEEvPT_(ptr noundef nonnull align 8 dereferenceable(23096) %59, ptr noundef %60)
  br label %61

61:                                               ; preds = %53, %50, %43
  %62 = load ptr, ptr %5, align 8
  %63 = call noundef nonnull align 8 dereferenceable(72) ptr @_ZN5clang12ConstantExpr13APValueResultEv(ptr noundef nonnull align 8 dereferenceable(24) %7)
  %64 = call noundef nonnull align 8 dereferenceable(72) ptr @_ZN5clang7APValueaSEOS0_(ptr noundef nonnull align 8 dereferenceable(72) %63, ptr noundef nonnull align 8 dereferenceable(72) %62)
  br label %66

65:                                               ; preds = %3
  unreachable

66:                                               ; preds = %61, %18, %17
  ret void
}