; Function Attrs: mustprogress nounwind uwtable
define dso_local void @_ZN5clang12ConstantExpr14MoveIntoResultERNS_7APValueERKNS_10ASTContextE(ptr noundef nonnull align 8 dereferenceable(24) %0, ptr noundef nonnull align 8 dereferenceable(72) %1, ptr noundef nonnull align 8 dereferenceable(23096) %2) local_unnamed_addr #1 align 2 {
  %4 = load i32, ptr %1, align 8
  %5 = load i32, ptr %0, align 8
  %6 = shl i32 %4, 20
  %7 = and i32 %6, 15728640
  %8 = and i32 %5, -15728641
  %9 = or disjoint i32 %8, %7
  store i32 %9, ptr %0, align 8
  %10 = lshr i32 %5, 18
  %11 = and i32 %10, 3
  switch i32 %11, label %47 [
    i32 0, label %48
    i32 1, label %12
    i32 2, label %34
  ]

12:                                               ; preds = %3
  %13 = getelementptr inbounds nuw i8, ptr %1, i64 8
  %14 = getelementptr inbounds i8, ptr %1, i64 16
  %15 = load i32, ptr %14, align 8
  %16 = icmp ult i32 %15, 65
  %17 = load ptr, ptr %13, align 8
  %.0.i = select i1 %16, ptr %13, ptr %17
  %18 = load i64, ptr %.0.i, align 8
  %19 = getelementptr inbounds i8, ptr %0, i64 24
  %20 = and i32 %5, 786432
  %21 = icmp eq i32 %20, 524288
  %22 = zext i1 %21 to i64
  %23 = getelementptr inbounds %"class.clang::APValue", ptr %19, i64 %22
  store i64 %18, ptr %23, align 8
  %24 = load i32, ptr %14, align 8
  %25 = shl i32 %24, 25
  %26 = and i32 %9, 33554431
  %27 = or disjoint i32 %25, %26
  store i32 %27, ptr %0, align 8
  %28 = getelementptr inbounds i8, ptr %1, i64 20
  %29 = load i8, ptr %28, align 4
  %30 = trunc i8 %29 to i1
  %31 = select i1 %30, i32 16777216, i32 0
  %32 = and i32 %27, -16777217
  %33 = or disjoint i32 %31, %32
  store i32 %33, ptr %0, align 8
  br label %48

34:                                               ; preds = %3
  %35 = getelementptr inbounds nuw i8, ptr %0, i64 4
  %36 = load i8, ptr %35, align 4
  %37 = and i8 %36, 1
  %.not = icmp eq i8 %37, 0
  br i1 %.not, label %38, label %44

38:                                               ; preds = %34
  %39 = tail call noundef zeroext i1 @_ZNK5clang7APValue12needsCleanupEv(ptr noundef nonnull align 8 dereferenceable(72) %1) #28
  br i1 %39, label %40, label %44

40:                                               ; preds = %38
  %41 = load i8, ptr %35, align 4
  %42 = or i8 %41, 1
  store i8 %42, ptr %35, align 4
  %43 = getelementptr inbounds i8, ptr %0, i64 24
  tail call void @_ZNK5clang10ASTContext15AddDeallocationEPFvPvES1_(ptr noundef nonnull align 8 dereferenceable(23096) %2, ptr noundef nonnull @_ZZNK5clang10ASTContext14addDestructionINS_7APValueEEEvPT_ENUlPvE_8__invokeES5_, ptr noundef nonnull %43) #28
  br label %44

44:                                               ; preds = %40, %38, %34
  %45 = getelementptr inbounds i8, ptr %0, i64 24
  %46 = tail call noundef nonnull align 8 dereferenceable(72) ptr @_ZN5clang7APValueaSEOS0_(ptr noundef nonnull align 8 dereferenceable(72) %45, ptr noundef nonnull align 8 dereferenceable(72) %1) #28
  br label %48

47:                                               ; preds = %3
  unreachable

48:                                               ; preds = %3, %44, %12
  ret void
}